target datalayout = "e-m:e-p270:32:32-p271:32:32-p272:64:64-i64:64-i128:128-f80:128-n8:16:32:64-S128"
target triple = "x86_64-pc-linux-gnu"

%struct.mbedtls_asn1_buf = type { i32, i64, ptr }

@.str = private unnamed_addr constant [118 x i8] c"generated/home/dtcxzyw/WorkSpace/Projects/compilers/llvm-opt-benchmark/bench/lief/bench_build/mbed_src/library/x509.c\00", align 1

; Function Attrs: inlinehint nounwind uwtable
define internal i32 @mbedtls_error_add(i32 noundef %0, i32 noundef %1, ptr noundef %2, i32 noundef %3) #2 {
  %5 = alloca i32, align 4
  %6 = alloca i32, align 4
  %7 = alloca ptr, align 8
  %8 = alloca i32, align 4
  store i32 %0, ptr %5, align 4, !tbaa !13
  store i32 %1, ptr %6, align 4, !tbaa !13
  store ptr %2, ptr %7, align 8, !tbaa !9
  store i32 %3, ptr %8, align 4, !tbaa !13
  %9 = load i32, ptr %5, align 4, !tbaa !13
  %10 = load i32, ptr %6, align 4, !tbaa !13
  %11 = add nsw i32 %9, %10
  ret i32 %11
}

; Function Attrs: nounwind uwtable
define internal i32 @x509_get_hash_alg(ptr noundef %0, ptr noundef %1) #0 {
  %3 = alloca i32, align 4
  %4 = alloca ptr, align 8
  %5 = alloca ptr, align 8
  %6 = alloca i32, align 4
  %7 = alloca ptr, align 8
  %8 = alloca ptr, align 8
  %9 = alloca %struct.mbedtls_asn1_buf, align 8
  %10 = alloca i64, align 8
  %11 = alloca i32, align 4
  store ptr %0, ptr %4, align 8, !tbaa !11
  store ptr %1, ptr %5, align 8, !tbaa !21
  call void @llvm.lifetime.start.p0(i64 4, ptr %6) #9
  store i32 -110, ptr %6, align 4, !tbaa !13
  call void @llvm.lifetime.start.p0(i64 8, ptr %7) #9
  call void @llvm.lifetime.start.p0(i64 8, ptr %8) #9
  call void @llvm.lifetime.start.p0(i64 24, ptr %9) #9
  call void @llvm.lifetime.start.p0(i64 8, ptr %10) #9
  %12 = load ptr, ptr %4, align 8, !tbaa !11
  %13 = getelementptr inbounds nuw %struct.mbedtls_asn1_buf, ptr %12, i32 0, i32 0
  %14 = load i32, ptr %13, align 8, !tbaa !16
  %15 = icmp ne i32 %14, 48
  br i1 %15, label %16, label %18

16:                                               ; preds = %2
  %17 = call i32 @mbedtls_error_add(i32 noundef -8960, i32 noundef -98, ptr noundef @.str, i32 noundef 190)
  store i32 %17, ptr %3, align 4
  store i32 1, ptr %11, align 4
  br label %79

18:                                               ; preds = %2
  %19 = load ptr, ptr %4, align 8, !tbaa !11
  %20 = getelementptr inbounds nuw %struct.mbedtls_asn1_buf, ptr %19, i32 0, i32 2
  %21 = load ptr, ptr %20, align 8, !tbaa !19
  store ptr %21, ptr %7, align 8, !tbaa !9
  %22 = load ptr, ptr %7, align 8, !tbaa !9
  %23 = load ptr, ptr %4, align 8, !tbaa !11
  %24 = getelementptr inbounds nuw %struct.mbedtls_asn1_buf, ptr %23, i32 0, i32 1
  %25 = load i64, ptr %24, align 8, !tbaa !20
  %26 = getelementptr inbounds nuw i8, ptr %22, i64 %25
  store ptr %26, ptr %8, align 8, !tbaa !9
  %27 = load ptr, ptr %7, align 8, !tbaa !9
  %28 = load ptr, ptr %8, align 8, !tbaa !9
  %29 = icmp uge ptr %27, %28
  br i1 %29, label %30, label %32

30:                                               ; preds = %18
  %31 = call i32 @mbedtls_error_add(i32 noundef -8960, i32 noundef -96, ptr noundef @.str, i32 noundef 198)
  store i32 %31, ptr %3, align 4
  store i32 1, ptr %11, align 4
  br label %79

32:                                               ; preds = %18
  %33 = load ptr, ptr %7, align 8, !tbaa !9
  %34 = load i8, ptr %33, align 1, !tbaa !15
  %35 = zext i8 %34 to i32
  %36 = getelementptr inbounds nuw %struct.mbedtls_asn1_buf, ptr %9, i32 0, i32 0
  store i32 %35, ptr %36, align 8, !tbaa !16
  %37 = load ptr, ptr %8, align 8, !tbaa !9
  %38 = getelementptr inbounds nuw %struct.mbedtls_asn1_buf, ptr %9, i32 0, i32 1
  %39 = call i32 @mbedtls_asn1_get_tag(ptr noundef %7, ptr noundef %37, ptr noundef %38, i32 noundef 6)
  store i32 %39, ptr %6, align 4, !tbaa !13
  %40 = icmp ne i32 %39, 0
  br i1 %40, label %41, label %44

41:                                               ; preds = %32
  %42 = load i32, ptr %6, align 4, !tbaa !13
  %43 = call i32 @mbedtls_error_add(i32 noundef -8960, i32 noundef %42, ptr noundef @.str, i32 noundef 205)
  store i32 %43, ptr %3, align 4
  store i32 1, ptr %11, align 4
  br label %79

44:                                               ; preds = %32
  %45 = load ptr, ptr %7, align 8, !tbaa !9
  %46 = getelementptr inbounds nuw %struct.mbedtls_asn1_buf, ptr %9, i32 0, i32 2
  store ptr %45, ptr %46, align 8, !tbaa !19
  %47 = getelementptr inbounds nuw %struct.mbedtls_asn1_buf, ptr %9, i32 0, i32 1
  %48 = load i64, ptr %47, align 8, !tbaa !20
  %49 = load ptr, ptr %7, align 8, !tbaa !9
  %50 = getelementptr inbounds nuw i8, ptr %49, i64 %48
  store ptr %50, ptr %7, align 8, !tbaa !9
  %51 = load ptr, ptr %5, align 8, !tbaa !21
  %52 = call i32 @mbedtls_oid_get_md_alg(ptr noundef %9, ptr noundef %51)
  store i32 %52, ptr %6, align 4, !tbaa !13
  %53 = icmp ne i32 %52, 0
  br i1 %53, label %54, label %57

54:                                               ; preds = %44
  %55 = load i32, ptr %6, align 4, !tbaa !13
  %56 = call i32 @mbedtls_error_add(i32 noundef -8960, i32 noundef %55, ptr noundef @.str, i32 noundef 213)
  store i32 %56, ptr %3, align 4
  store i32 1, ptr %11, align 4
  br label %79

57:                                               ; preds = %44
  %58 = load ptr, ptr %7, align 8, !tbaa !9
  %59 = load ptr, ptr %8, align 8, !tbaa !9
  %60 = icmp eq ptr %58, %59
  br i1 %60, label %61, label %62

61:                                               ; preds = %57
  store i32 0, ptr %3, align 4
  store i32 1, ptr %11, align 4
  br label %79

62:                                               ; preds = %57
  %63 = load ptr, ptr %8, align 8, !tbaa !9
  %64 = call i32 @mbedtls_asn1_get_tag(ptr noundef %7, ptr noundef %63, ptr noundef %10, i32 noundef 5)
  store i32 %64, ptr %6, align 4, !tbaa !13
  %65 = icmp ne i32 %64, 0
  br i1 %65, label %69, label %66

66:                                               ; preds = %62
  %67 = load i64, ptr %10, align 8, !tbaa !24
  %68 = icmp ne i64 %67, 0
  br i1 %68, label %69, label %72

69:                                               ; preds = %66, %62
  %70 = load i32, ptr %6, align 4, !tbaa !13
  %71 = call i32 @mbedtls_error_add(i32 noundef -8960, i32 noundef %70, ptr noundef @.str, i32 noundef 222)
  store i32 %71, ptr %3, align 4
  store i32 1, ptr %11, align 4
  br label %79

72:                                               ; preds = %66
  %73 = load ptr, ptr %7, align 8, !tbaa !9
  %74 = load ptr, ptr %8, align 8, !tbaa !9
  %75 = icmp ne ptr %73, %74
  br i1 %75, label %76, label %78

76:                                               ; preds = %72
  %77 = call i32 @mbedtls_error_add(i32 noundef -8960, i32 noundef -102, ptr noundef @.str, i32 noundef 227)
  store i32 %77, ptr %3, align 4
  store i32 1, ptr %11, align 4
  br label %79

78:                                               ; preds = %72
  store i32 0, ptr %3, align 4
  store i32 1, ptr %11, align 4
  br label %79

79:                                               ; preds = %78, %76, %69, %61, %54, %41, %30, %16
  call void @llvm.lifetime.end.p0(i64 8, ptr %10) #9
  call void @llvm.lifetime.end.p0(i64 24, ptr %9) #9
  call void @llvm.lifetime.end.p0(i64 8, ptr %8) #9
  call void @llvm.lifetime.end.p0(i64 8, ptr %7) #9
  call void @llvm.lifetime.end.p0(i64 4, ptr %6) #9
  %80 = load i32, ptr %3, align 4
  ret i32 %80
}