; Function Attrs: nounwind uwtable
define internal fastcc range(i32 -2147483648, 2147474688) i32 @x509_get_hash_alg(ptr noundef nonnull readonly captures(none) %0, ptr noundef %1) unnamed_addr #0 {
  %3 = alloca ptr, align 8
  %4 = alloca %struct.mbedtls_asn1_buf, align 8
  %5 = alloca i64, align 8
  call void @llvm.lifetime.start.p0(i64 8, ptr nonnull %3) #13
  call void @llvm.lifetime.start.p0(i64 24, ptr nonnull %4) #13
  call void @llvm.lifetime.start.p0(i64 8, ptr nonnull %5) #13
  %6 = load i32, ptr %0, align 8, !tbaa !9
  %.not = icmp eq i32 %6, 48
  br i1 %.not, label %7, label %40

7:                                                ; preds = %2
  %8 = getelementptr inbounds nuw i8, ptr %0, i64 16
  %9 = load ptr, ptr %8, align 8, !tbaa !13
  store ptr %9, ptr %3, align 8, !tbaa !3
  %10 = getelementptr inbounds nuw i8, ptr %0, i64 8
  %11 = load i64, ptr %10, align 8, !tbaa !14
  %12 = getelementptr inbounds nuw i8, ptr %9, i64 %11
  %.not17.not = icmp eq i64 %11, 0
  br i1 %.not17.not, label %40, label %13

13:                                               ; preds = %7
  %14 = load i8, ptr %9, align 1, !tbaa !8
  %15 = zext i8 %14 to i32
  store i32 %15, ptr %4, align 8, !tbaa !9
  %16 = getelementptr inbounds nuw i8, ptr %4, i64 8
  %17 = call i32 @mbedtls_asn1_get_tag(ptr noundef nonnull %3, ptr noundef nonnull %12, ptr noundef nonnull %16, i32 noundef 6) #13
  %.not18 = icmp eq i32 %17, 0
  br i1 %.not18, label %20, label %18

18:                                               ; preds = %13
  %19 = add nsw i32 %17, -8960
  br label %40

20:                                               ; preds = %13
  %21 = load ptr, ptr %3, align 8, !tbaa !3
  %22 = getelementptr inbounds nuw i8, ptr %4, i64 16
  store ptr %21, ptr %22, align 8, !tbaa !13
  %23 = load i64, ptr %16, align 8, !tbaa !14
  %24 = getelementptr inbounds nuw i8, ptr %21, i64 %23
  store ptr %24, ptr %3, align 8, !tbaa !3
  %25 = call i32 @mbedtls_oid_get_md_alg(ptr noundef nonnull %4, ptr noundef %1) #13
  %.not19 = icmp eq i32 %25, 0
  br i1 %.not19, label %28, label %26

26:                                               ; preds = %20
  %27 = add nsw i32 %25, -8960
  br label %40

28:                                               ; preds = %20
  %29 = load ptr, ptr %3, align 8, !tbaa !3
  %30 = icmp eq ptr %29, %12
  br i1 %30, label %40, label %31

31:                                               ; preds = %28
  %32 = call i32 @mbedtls_asn1_get_tag(ptr noundef nonnull %3, ptr noundef nonnull %12, ptr noundef nonnull %5, i32 noundef 5) #13
  %33 = icmp ne i32 %32, 0
  %34 = load i64, ptr %5, align 8
  %35 = icmp ne i64 %34, 0
  %or.cond = select i1 %33, i1 true, i1 %35
  br i1 %or.cond, label %36, label %38

36:                                               ; preds = %31
  %37 = add nsw i32 %32, -8960
  br label %40

38:                                               ; preds = %31
  %39 = load ptr, ptr %3, align 8, !tbaa !3
  %.not20 = icmp eq ptr %39, %12
  %spec.select = select i1 %.not20, i32 0, i32 -9062
  br label %40

40:                                               ; preds = %38, %7, %2, %28, %36, %26, %18
  %.0 = phi i32 [ %19, %18 ], [ %27, %26 ], [ %37, %36 ], [ 0, %28 ], [ -9058, %2 ], [ -9056, %7 ], [ %spec.select, %38 ]
  call void @llvm.lifetime.end.p0(i64 8, ptr nonnull %5) #13
  call void @llvm.lifetime.end.p0(i64 24, ptr nonnull %4) #13
  call void @llvm.lifetime.end.p0(i64 8, ptr nonnull %3) #13
  ret i32 %.0
}